; Function Attrs: mustprogress uwtable
define noundef nonnull ptr @_ZNK7RichInt5cloneEv(ptr noundef nonnull align 8 dereferenceable(56) %0) unnamed_addr #2 align 2 personality ptr @__gxx_personality_v0 {
  %2 = tail call noalias noundef nonnull dereferenceable(56) ptr @_Znwm(i64 noundef 56) #10
  invoke void @_ZN13RichParameterC2ERKS_(ptr noundef nonnull align 8 dereferenceable(56) %2, ptr noundef nonnull align 8 dereferenceable(56) %0)
          to label %3 unwind label %4

3:                                                ; preds = %1
  store ptr getelementptr inbounds ({ [8 x ptr] }, ptr @_ZTV7RichInt, i64 0, i32 0, i64 2), ptr %2, align 8
  ret ptr %2

4:                                                ; preds = %1
  %5 = landingpad { ptr, i32 }
          cleanup
  tail call void @_ZdlPv(ptr noundef nonnull %2) #9
  resume { ptr, i32 } %5
}